target datalayout = "e-m:e-p270:32:32-p271:32:32-p272:64:64-i64:64-i128:128-f80:128-n8:16:32:64-S128"
target triple = "x86_64-pc-linux-gnu"

%"class.cvc5::internal::NodeTemplate" = type { ptr }
%"class.cvc5::internal::EnvObj" = type { ptr, ptr }
%"class.cvc5::internal::preprocessing::util::ITESimplifier" = type { %"class.cvc5::internal::EnvObj", %"class.cvc5::internal::NodeTemplate", %"class.cvc5::internal::NodeTemplate", ptr, %"class.cvc5::internal::preprocessing::util::TermITEHeightCounter", %"class.std::unordered_map.300", %"class.std::vector.314", i32, %"class.std::unordered_map.319", %"class.std::unordered_map.319", %"class.std::unordered_map.319", %"class.std::unordered_map", %"class.std::unordered_map.319", %"class.std::unordered_map.337", %"class.std::unordered_map.356", %"class.std::unordered_map.356", %"class.cvc5::internal::preprocessing::util::ITESimplifier::Statistics" }
%"class.cvc5::internal::preprocessing::util::TermITEHeightCounter" = type { %"class.std::unordered_map.286" }
%"class.std::unordered_map.286" = type { %"class.std::_Hashtable.287" }
%"class.std::_Hashtable.287" = type { ptr, i64, %"struct.std::__detail::_Hash_node_base", i64, %"struct.std::__detail::_Prime_rehash_policy", ptr }
%"struct.std::__detail::_Hash_node_base" = type { ptr }
%"struct.std::__detail::_Prime_rehash_policy" = type { float, i64 }
%"class.std::unordered_map.300" = type { %"class.std::_Hashtable.301" }
%"class.std::_Hashtable.301" = type { ptr, i64, %"struct.std::__detail::_Hash_node_base", i64, %"struct.std::__detail::_Prime_rehash_policy", ptr }
%"class.std::vector.314" = type { %"struct.std::_Vector_base.315" }
%"struct.std::_Vector_base.315" = type { %"struct.std::_Vector_base<std::vector<cvc5::internal::NodeTemplate<true>> *, std::allocator<std::vector<cvc5::internal::NodeTemplate<true>> *>>::_Vector_impl" }
%"struct.std::_Vector_base<std::vector<cvc5::internal::NodeTemplate<true>> *, std::allocator<std::vector<cvc5::internal::NodeTemplate<true>> *>>::_Vector_impl" = type { %"struct.std::_Vector_base<std::vector<cvc5::internal::NodeTemplate<true>> *, std::allocator<std::vector<cvc5::internal::NodeTemplate<true>> *>>::_Vector_impl_data" }
%"struct.std::_Vector_base<std::vector<cvc5::internal::NodeTemplate<true>> *, std::allocator<std::vector<cvc5::internal::NodeTemplate<true>> *>>::_Vector_impl_data" = type { ptr, ptr, ptr }
%"class.std::unordered_map" = type { %"class.std::_Hashtable" }
%"class.std::_Hashtable" = type { ptr, i64, %"struct.std::__detail::_Hash_node_base", i64, %"struct.std::__detail::_Prime_rehash_policy", ptr }
%"class.std::unordered_map.319" = type { %"class.std::_Hashtable.320" }
%"class.std::_Hashtable.320" = type { ptr, i64, %"struct.std::__detail::_Hash_node_base", i64, %"struct.std::__detail::_Prime_rehash_policy", ptr }
%"class.std::unordered_map.337" = type { %"class.std::_Hashtable.338" }
%"class.std::_Hashtable.338" = type { ptr, i64, %"struct.std::__detail::_Hash_node_base", i64, %"struct.std::__detail::_Prime_rehash_policy", ptr }
%"class.std::unordered_map.356" = type { %"class.std::_Hashtable.357" }
%"class.std::_Hashtable.357" = type { ptr, i64, %"struct.std::__detail::_Hash_node_base", i64, %"struct.std::__detail::_Prime_rehash_policy", ptr }
%"class.cvc5::internal::preprocessing::util::ITESimplifier::Statistics" = type { %"class.cvc5::internal::IntStat", %"class.cvc5::internal::IntStat", %"class.cvc5::internal::IntStat", %"class.cvc5::internal::IntStat", %"class.cvc5::internal::IntStat", %"class.cvc5::internal::IntStat", %"class.cvc5::internal::IntStat", i32, i32, i32, i32, %"class.cvc5::internal::HistogramStat" }
%"class.cvc5::internal::IntStat" = type { %"class.cvc5::internal::ValueStat" }
%"class.cvc5::internal::ValueStat" = type { ptr }
%"class.cvc5::internal::HistogramStat" = type { ptr }
%"class.std::locale" = type { ptr }
%"class.std::ios_base" = type { ptr, i64, i64, i32, i32, i32, ptr, %"struct.std::ios_base::_Words", [8 x %"struct.std::ios_base::_Words"], i32, ptr, %"class.std::locale" }
%"struct.std::ios_base::_Words" = type { ptr, i64 }

@.str.7 = private unnamed_addr constant [32 x i8] c"d_citeEqConstApplications size \00", align 1

; Function Attrs: inlinehint mustprogress nounwind uwtable
define linkonce_odr noundef i32 @_ZStorSt12_Ios_IostateS_(i32 noundef %0, i32 noundef %1) #9 comdat {
  %3 = alloca i32, align 4
  %4 = alloca i32, align 4
  store i32 %0, ptr %3, align 4, !tbaa !852
  store i32 %1, ptr %4, align 4, !tbaa !852
  %5 = load i32, ptr %3, align 4, !tbaa !852
  %6 = load i32, ptr %4, align 4, !tbaa !852
  %7 = or i32 %5, %6
  ret i32 %7
}

; Function Attrs: mustprogress nounwind uwtable
define available_externally noundef i32 @_ZNKSt9basic_iosIcSt11char_traitsIcEE7rdstateEv(ptr noundef nonnull align 8 dereferenceable(264) %0) #7 align 2 {
  %2 = alloca ptr, align 8
  store ptr %0, ptr %2, align 8, !tbaa !830
  %3 = load ptr, ptr %2, align 8
  %4 = getelementptr inbounds nuw %"class.std::ios_base", ptr %3, i32 0, i32 5
  %5 = load i32, ptr %4, align 8, !tbaa !853
  ret i32 %5
}

; Function Attrs: mustprogress nounwind uwtable
define linkonce_odr hidden noundef i64 @_ZNSt11char_traitsIcE6lengthEPKc(ptr noundef %0) #7 comdat align 2 {
  %2 = alloca ptr, align 8
  store ptr %0, ptr %2, align 8, !tbaa !187
  %3 = load ptr, ptr %2, align 8, !tbaa !187
  %4 = call i64 @strlen(ptr noundef %3) #3
  ret i64 %4
}

; Function Attrs: mustprogress uwtable
define available_externally void @_ZNSt9basic_iosIcSt11char_traitsIcEE8setstateESt12_Ios_Iostate(ptr noundef nonnull align 8 dereferenceable(264) %0, i32 noundef %1) #4 align 2 {
  %3 = alloca ptr, align 8
  %4 = alloca i32, align 4
  store ptr %0, ptr %3, align 8, !tbaa !830
  store i32 %1, ptr %4, align 4, !tbaa !852
  %5 = load ptr, ptr %3, align 8
  %6 = call noundef i32 @_ZNKSt9basic_iosIcSt11char_traitsIcEE7rdstateEv(ptr noundef nonnull align 8 dereferenceable(264) %5)
  %7 = load i32, ptr %4, align 4, !tbaa !852
  %8 = call noundef i32 @_ZStorSt12_Ios_IostateS_(i32 noundef %6, i32 noundef %7)
  call void @_ZNSt9basic_iosIcSt11char_traitsIcEE5clearESt12_Ios_Iostate(ptr noundef nonnull align 8 dereferenceable(264) %5, i32 noundef %8)
  ret void
}

; Function Attrs: mustprogress uwtable
define available_externally noundef nonnull align 8 dereferenceable(8) ptr @_ZNSolsEPFRSoS_E(ptr noundef nonnull align 8 dereferenceable(8) %0, ptr noundef %1) #4 align 2 {
  %3 = alloca ptr, align 8
  %4 = alloca ptr, align 8
  store ptr %0, ptr %3, align 8, !tbaa !211
  store ptr %1, ptr %4, align 8, !tbaa !213
  %5 = load ptr, ptr %3, align 8
  %6 = load ptr, ptr %4, align 8, !tbaa !213
  %7 = call noundef nonnull align 8 dereferenceable(8) ptr %6(ptr noundef nonnull align 8 dereferenceable(8) %5)
  ret ptr %7
}

; Function Attrs: mustprogress uwtable
define available_externally noundef nonnull align 8 dereferenceable(8) ptr @_ZNSolsEj(ptr noundef nonnull align 8 dereferenceable(8) %0, i32 noundef %1) #4 align 2 {
  %3 = alloca ptr, align 8
  %4 = alloca i32, align 4
  store ptr %0, ptr %3, align 8, !tbaa !211
  store i32 %1, ptr %4, align 4, !tbaa !49
  %5 = load ptr, ptr %3, align 8
  %6 = load i32, ptr %4, align 4, !tbaa !49
  %7 = zext i32 %6 to i64
  %8 = call noundef nonnull align 8 dereferenceable(8) ptr @_ZNSo9_M_insertImEERSoT_(ptr noundef nonnull align 8 dereferenceable(8) %5, i64 noundef %7)
  ret ptr %8
}

; Function Attrs: inlinehint mustprogress uwtable
define available_externally noundef nonnull align 8 dereferenceable(8) ptr @_ZStlsISt11char_traitsIcEERSt13basic_ostreamIcT_ES5_PKc(ptr noundef nonnull align 8 dereferenceable(8) %0, ptr noundef %1) #11 {
  %3 = alloca ptr, align 8
  %4 = alloca ptr, align 8
  store ptr %0, ptr %3, align 8, !tbaa !211
  store ptr %1, ptr %4, align 8, !tbaa !187
  %5 = load ptr, ptr %4, align 8, !tbaa !187
  %6 = icmp ne ptr %5, null
  br i1 %6, label %13, label %7

7:                                                ; preds = %2
  %8 = load ptr, ptr %3, align 8, !tbaa !211
  %9 = load ptr, ptr %8, align 8, !tbaa !10
  %10 = getelementptr i8, ptr %9, i64 -24
  %11 = load i64, ptr %10, align 8
  %12 = getelementptr inbounds i8, ptr %8, i64 %11
  call void @_ZNSt9basic_iosIcSt11char_traitsIcEE8setstateESt12_Ios_Iostate(ptr noundef nonnull align 8 dereferenceable(264) %12, i32 noundef 1)
  br label %19

13:                                               ; preds = %2
  %14 = load ptr, ptr %3, align 8, !tbaa !211
  %15 = load ptr, ptr %4, align 8, !tbaa !187
  %16 = load ptr, ptr %4, align 8, !tbaa !187
  %17 = call noundef i64 @_ZNSt11char_traitsIcE6lengthEPKc(ptr noundef %16)
  %18 = call noundef nonnull align 8 dereferenceable(8) ptr @_ZSt16__ostream_insertIcSt11char_traitsIcEERSt13basic_ostreamIT_T0_ES6_PKS3_l(ptr noundef nonnull align 8 dereferenceable(8) %14, ptr noundef %15, i64 noundef %17)
  br label %19

19:                                               ; preds = %13, %7
  %20 = load ptr, ptr %3, align 8, !tbaa !211
  ret ptr %20
}

; Function Attrs: mustprogress uwtable
define hidden noundef zeroext i1 @_ZNK4cvc58internal13preprocessing4util13ITESimplifier23doneALotOfWorkHeuristicEv(ptr noundef nonnull align 8 dereferenceable(712) %0) #4 align 2 {
  %2 = alloca ptr, align 8
  store ptr %0, ptr %2, align 8, !tbaa !37
  %3 = load ptr, ptr %2, align 8
  %4 = call noundef nonnull align 8 dereferenceable(8) ptr @_ZNK4cvc58internal6EnvObj7verboseEl(ptr noundef nonnull align 8 dereferenceable(16) %3, i64 noundef 2)
  %5 = call noundef nonnull align 8 dereferenceable(8) ptr @_ZStlsISt11char_traitsIcEERSt13basic_ostreamIcT_ES5_PKc(ptr noundef nonnull align 8 dereferenceable(8) %4, ptr noundef @.str.7)
  %6 = getelementptr inbounds nuw %"class.cvc5::internal::preprocessing::util::ITESimplifier", ptr %3, i32 0, i32 7
  %7 = load i32, ptr %6, align 8, !tbaa !54
  %8 = call noundef nonnull align 8 dereferenceable(8) ptr @_ZNSolsEj(ptr noundef nonnull align 8 dereferenceable(8) %5, i32 noundef %7)
  %9 = call noundef nonnull align 8 dereferenceable(8) ptr @_ZNSolsEPFRSoS_E(ptr noundef nonnull align 8 dereferenceable(8) %8, ptr noundef @_ZSt4endlIcSt11char_traitsIcEERSt13basic_ostreamIT_T0_ES6_)
  %10 = getelementptr inbounds nuw %"class.cvc5::internal::preprocessing::util::ITESimplifier", ptr %3, i32 0, i32 7
  %11 = load i32, ptr %10, align 8, !tbaa !54
  %12 = zext i32 %11 to i64
  %13 = icmp ugt i64 %12, 1000
  ret i1 %13
}